target datalayout = "e-m:e-p270:32:32-p271:32:32-p272:64:64-i64:64-i128:128-f80:128-n8:16:32:64-S128"
target triple = "x86_64-pc-linux-gnu"

%struct.Cut_CMan_t_ = type { ptr, ptr, [10 x ptr], [9 x [16 x i32]], [22 x [16 x i32]], [22 x [16 x i32]], [22 x [16 x i32]], [16 x i32], [16 x i32], i32, i32, [10 x i32], [10 x i32], [10 x i32], i64, i64, i64, i32, i32 }
%struct.Cut_Cell_t_ = type { ptr, ptr, ptr, i32, [4 x i8], i32, [12 x i8], [18 x i16], [16 x i32] }

@.str = private unnamed_addr constant [24 x i8] c"cells22_daomap_iwls.txt\00", align 1
@.str.1 = private unnamed_addr constant [2 x i8] c"r\00", align 1
@.str.2 = private unnamed_addr constant [24 x i8] c"Cannot open file \22%s\22.\0A\00", align 1
@.str.3 = private unnamed_addr constant [60 x i8] c"Read %d cells from file \22%s\22. Added %d cells to the table.\0A\00", align 1
@s_pCMan = internal global ptr null, align 8

; Function Attrs: inlinehint nounwind uwtable
define internal i32 @Abc_Base2Log(i32 noundef %0) #5 {
  %2 = alloca i32, align 4
  %3 = alloca i32, align 4
  %4 = alloca i32, align 4
  %5 = alloca i32, align 4
  store i32 %0, ptr %3, align 4, !tbaa !12
  call void @llvm.lifetime.start.p0(i64 4, ptr %4) #9
  %6 = load i32, ptr %3, align 4, !tbaa !12
  %7 = icmp ult i32 %6, 2
  br i1 %7, label %8, label %10

8:                                                ; preds = %1
  %9 = load i32, ptr %3, align 4, !tbaa !12
  store i32 %9, ptr %2, align 4
  store i32 1, ptr %5, align 4
  br label %24

10:                                               ; preds = %1
  store i32 0, ptr %4, align 4, !tbaa !12
  %11 = load i32, ptr %3, align 4, !tbaa !12
  %12 = add i32 %11, -1
  store i32 %12, ptr %3, align 4, !tbaa !12
  br label %13

13:                                               ; preds = %17, %10
  %14 = load i32, ptr %3, align 4, !tbaa !12
  %15 = icmp ne i32 %14, 0
  br i1 %15, label %16, label %22

16:                                               ; preds = %13
  br label %17

17:                                               ; preds = %16
  %18 = load i32, ptr %3, align 4, !tbaa !12
  %19 = lshr i32 %18, 1
  store i32 %19, ptr %3, align 4, !tbaa !12
  %20 = load i32, ptr %4, align 4, !tbaa !12
  %21 = add nsw i32 %20, 1
  store i32 %21, ptr %4, align 4, !tbaa !12
  br label %13, !llvm.loop !28

22:                                               ; preds = %13
  %23 = load i32, ptr %4, align 4, !tbaa !12
  store i32 %23, ptr %2, align 4
  store i32 1, ptr %5, align 4
  br label %24

24:                                               ; preds = %22, %8
  call void @llvm.lifetime.end.p0(i64 4, ptr %4) #9
  %25 = load i32, ptr %2, align 4
  ret i32 %25
}

; Function Attrs: nounwind uwtable
define internal ptr @Cut_CManStart() #0 {
  %1 = alloca ptr, align 8
  %2 = alloca i32, align 4
  %3 = alloca i32, align 4
  call void @llvm.lifetime.start.p0(i64 8, ptr %1) #9
  call void @llvm.lifetime.start.p0(i64 4, ptr %2) #9
  call void @llvm.lifetime.start.p0(i64 4, ptr %3) #9
  %4 = call noalias ptr @malloc(i64 noundef 5184) #11
  store ptr %4, ptr %1, align 8, !tbaa !10
  %5 = load ptr, ptr %1, align 8, !tbaa !10
  call void @llvm.memset.p0.i64(ptr align 8 %5, i8 0, i64 5184, i1 false)
  %6 = call ptr @st__init_table(ptr noundef @st__ptrcmp, ptr noundef @st__ptrhash)
  %7 = load ptr, ptr %1, align 8, !tbaa !10
  %8 = getelementptr inbounds nuw %struct.Cut_CMan_t_, ptr %7, i32 0, i32 1
  store ptr %6, ptr %8, align 8, !tbaa !33
  %9 = call ptr @Extra_MmFixedStart(i32 noundef 152)
  %10 = load ptr, ptr %1, align 8, !tbaa !10
  %11 = getelementptr inbounds nuw %struct.Cut_CMan_t_, ptr %10, i32 0, i32 0
  store ptr %9, ptr %11, align 8, !tbaa !17
  store i32 0, ptr %3, align 4, !tbaa !12
  br label %12

12:                                               ; preds = %45, %0
  %13 = load i32, ptr %3, align 4, !tbaa !12
  %14 = icmp slt i32 %13, 9
  br i1 %14, label %15, label %48

15:                                               ; preds = %12
  store i32 0, ptr %2, align 4, !tbaa !12
  br label %16

16:                                               ; preds = %41, %15
  %17 = load i32, ptr %2, align 4, !tbaa !12
  %18 = icmp slt i32 %17, 512
  br i1 %18, label %19, label %44

19:                                               ; preds = %16
  %20 = load i32, ptr %2, align 4, !tbaa !12
  %21 = load i32, ptr %3, align 4, !tbaa !12
  %22 = shl i32 1, %21
  %23 = and i32 %20, %22
  %24 = icmp ne i32 %23, 0
  br i1 %24, label %25, label %40

25:                                               ; preds = %19
  %26 = load i32, ptr %2, align 4, !tbaa !12
  %27 = and i32 %26, 31
  %28 = shl i32 1, %27
  %29 = load ptr, ptr %1, align 8, !tbaa !10
  %30 = getelementptr inbounds nuw %struct.Cut_CMan_t_, ptr %29, i32 0, i32 3
  %31 = load i32, ptr %3, align 4, !tbaa !12
  %32 = sext i32 %31 to i64
  %33 = getelementptr inbounds [9 x [16 x i32]], ptr %30, i64 0, i64 %32
  %34 = load i32, ptr %2, align 4, !tbaa !12
  %35 = ashr i32 %34, 5
  %36 = sext i32 %35 to i64
  %37 = getelementptr inbounds [16 x i32], ptr %33, i64 0, i64 %36
  %38 = load i32, ptr %37, align 4, !tbaa !12
  %39 = or i32 %38, %28
  store i32 %39, ptr %37, align 4, !tbaa !12
  br label %40

40:                                               ; preds = %25, %19
  br label %41

41:                                               ; preds = %40
  %42 = load i32, ptr %2, align 4, !tbaa !12
  %43 = add nsw i32 %42, 1
  store i32 %43, ptr %2, align 4, !tbaa !12
  br label %16, !llvm.loop !112

44:                                               ; preds = %16
  br label %45

45:                                               ; preds = %44
  %46 = load i32, ptr %3, align 4, !tbaa !12
  %47 = add nsw i32 %46, 1
  store i32 %47, ptr %3, align 4, !tbaa !12
  br label %12, !llvm.loop !113

48:                                               ; preds = %12
  %49 = load ptr, ptr %1, align 8, !tbaa !10
  store ptr %49, ptr @s_pCMan, align 8, !tbaa !10
  %50 = load ptr, ptr %1, align 8, !tbaa !10
  call void @llvm.lifetime.end.p0(i64 4, ptr %3) #9
  call void @llvm.lifetime.end.p0(i64 4, ptr %2) #9
  call void @llvm.lifetime.end.p0(i64 8, ptr %1) #9
  ret ptr %50
}

; Function Attrs: nounwind uwtable
define void @Cut_CellLoad() #0 {
  %1 = alloca ptr, align 8
  %2 = alloca ptr, align 8
  %3 = alloca [1000 x i8], align 16
  %4 = alloca ptr, align 8
  %5 = alloca ptr, align 8
  %6 = alloca i32, align 4
  %7 = alloca i32, align 4
  call void @llvm.lifetime.start.p0(i64 8, ptr %1) #9
  call void @llvm.lifetime.start.p0(i64 8, ptr %2) #9
  store ptr @.str, ptr %2, align 8, !tbaa !3
  call void @llvm.lifetime.start.p0(i64 1000, ptr %3) #9
  call void @llvm.lifetime.start.p0(i64 8, ptr %4) #9
  call void @llvm.lifetime.start.p0(i64 8, ptr %5) #9
  call void @llvm.lifetime.start.p0(i64 4, ptr %6) #9
  %8 = load ptr, ptr %2, align 8, !tbaa !3
  %9 = call noalias ptr @fopen(ptr noundef %8, ptr noundef @.str.1)
  store ptr %9, ptr %1, align 8, !tbaa !8
  %10 = load ptr, ptr %1, align 8, !tbaa !8
  %11 = icmp eq ptr %10, null
  br i1 %11, label %12, label %15

12:                                               ; preds = %0
  %13 = load ptr, ptr %2, align 8, !tbaa !3
  %14 = call i32 (ptr, ...) @printf(ptr noundef @.str.2, ptr noundef %13)
  store i32 1, ptr %7, align 4
  br label %85

15:                                               ; preds = %0
  %16 = call ptr @Cut_CManStart()
  store ptr %16, ptr %4, align 8, !tbaa !10
  br label %17

17:                                               ; preds = %73, %32, %15
  %18 = getelementptr inbounds [1000 x i8], ptr %3, i64 0, i64 0
  %19 = load ptr, ptr %1, align 8, !tbaa !8
  %20 = call ptr @fgets(ptr noundef %18, i32 noundef 1000, ptr noundef %19)
  %21 = icmp ne ptr %20, null
  br i1 %21, label %22, label %74

22:                                               ; preds = %17
  %23 = getelementptr inbounds [1000 x i8], ptr %3, i64 0, i64 0
  %24 = call i64 @strlen(ptr noundef %23) #10
  %25 = trunc i64 %24 to i32
  store i32 %25, ptr %6, align 4, !tbaa !12
  %26 = load i32, ptr %6, align 4, !tbaa !12
  %27 = add nsw i32 %26, -1
  store i32 %27, ptr %6, align 4, !tbaa !12
  %28 = sext i32 %26 to i64
  %29 = getelementptr inbounds [1000 x i8], ptr %3, i64 0, i64 %28
  store i8 0, ptr %29, align 1, !tbaa !14
  %30 = load i32, ptr %6, align 4, !tbaa !12
  %31 = icmp eq i32 %30, 0
  br i1 %31, label %32, label %33

32:                                               ; preds = %22
  br label %17, !llvm.loop !15

33:                                               ; preds = %22
  %34 = load ptr, ptr %4, align 8, !tbaa !10
  %35 = getelementptr inbounds nuw %struct.Cut_CMan_t_, ptr %34, i32 0, i32 0
  %36 = load ptr, ptr %35, align 8, !tbaa !17
  %37 = call ptr @Extra_MmFixedEntryFetch(ptr noundef %36)
  store ptr %37, ptr %5, align 8, !tbaa !22
  %38 = load ptr, ptr %5, align 8, !tbaa !22
  call void @llvm.memset.p0.i64(ptr align 8 %38, i8 0, i64 152, i1 false)
  %39 = load i32, ptr %6, align 4, !tbaa !12
  %40 = mul nsw i32 %39, 4
  %41 = call i32 @Abc_Base2Log(i32 noundef %40)
  %42 = load ptr, ptr %5, align 8, !tbaa !22
  %43 = getelementptr inbounds nuw %struct.Cut_Cell_t_, ptr %42, i32 0, i32 5
  %44 = load i32, ptr %43, align 8
  %45 = and i32 %41, 15
  %46 = and i32 %44, -16
  %47 = or i32 %46, %45
  store i32 %47, ptr %43, align 8
  %48 = load ptr, ptr %5, align 8, !tbaa !22
  %49 = getelementptr inbounds nuw %struct.Cut_Cell_t_, ptr %48, i32 0, i32 3
  store i32 1, ptr %49, align 8, !tbaa !24
  %50 = load ptr, ptr %5, align 8, !tbaa !22
  %51 = getelementptr inbounds nuw %struct.Cut_Cell_t_, ptr %50, i32 0, i32 8
  %52 = getelementptr inbounds [16 x i32], ptr %51, i64 0, i64 0
  %53 = getelementptr inbounds [1000 x i8], ptr %3, i64 0, i64 0
  %54 = load ptr, ptr %5, align 8, !tbaa !22
  %55 = getelementptr inbounds nuw %struct.Cut_Cell_t_, ptr %54, i32 0, i32 5
  %56 = load i32, ptr %55, align 8
  %57 = and i32 %56, 15
  %58 = call i32 @Extra_ReadHexadecimal(ptr noundef %52, ptr noundef %53, i32 noundef %57)
  %59 = load ptr, ptr %5, align 8, !tbaa !22
  call void @Cut_CellSuppMin(ptr noundef %59)
  %60 = load ptr, ptr %4, align 8, !tbaa !10
  %61 = getelementptr inbounds nuw %struct.Cut_CMan_t_, ptr %60, i32 0, i32 9
  %62 = load i32, ptr %61, align 8, !tbaa !26
  %63 = add nsw i32 %62, 1
  store i32 %63, ptr %61, align 8, !tbaa !26
  %64 = load ptr, ptr %4, align 8, !tbaa !10
  %65 = load ptr, ptr %5, align 8, !tbaa !22
  %66 = call i32 @Cut_CellTableLookup(ptr noundef %64, ptr noundef %65)
  %67 = icmp ne i32 %66, 0
  br i1 %67, label %73, label %68

68:                                               ; preds = %33
  %69 = load ptr, ptr %4, align 8, !tbaa !10
  %70 = getelementptr inbounds nuw %struct.Cut_CMan_t_, ptr %69, i32 0, i32 10
  %71 = load i32, ptr %70, align 4, !tbaa !27
  %72 = add nsw i32 %71, 1
  store i32 %72, ptr %70, align 4, !tbaa !27
  br label %73

73:                                               ; preds = %68, %33
  br label %17, !llvm.loop !15

74:                                               ; preds = %17
  %75 = load ptr, ptr %4, align 8, !tbaa !10
  %76 = getelementptr inbounds nuw %struct.Cut_CMan_t_, ptr %75, i32 0, i32 9
  %77 = load i32, ptr %76, align 8, !tbaa !26
  %78 = load ptr, ptr %2, align 8, !tbaa !3
  %79 = load ptr, ptr %4, align 8, !tbaa !10
  %80 = getelementptr inbounds nuw %struct.Cut_CMan_t_, ptr %79, i32 0, i32 10
  %81 = load i32, ptr %80, align 4, !tbaa !27
  %82 = call i32 (ptr, ...) @printf(ptr noundef @.str.3, i32 noundef %77, ptr noundef %78, i32 noundef %81)
  %83 = load ptr, ptr %1, align 8, !tbaa !8
  %84 = call i32 @fclose(ptr noundef %83)
  store i32 0, ptr %7, align 4
  br label %85

85:                                               ; preds = %74, %12
  call void @llvm.lifetime.end.p0(i64 4, ptr %6) #9
  call void @llvm.lifetime.end.p0(i64 8, ptr %5) #9
  call void @llvm.lifetime.end.p0(i64 8, ptr %4) #9
  call void @llvm.lifetime.end.p0(i64 1000, ptr %3) #9
  call void @llvm.lifetime.end.p0(i64 8, ptr %2) #9
  call void @llvm.lifetime.end.p0(i64 8, ptr %1) #9
  %86 = load i32, ptr %7, align 4
  switch i32 %86, label %88 [
    i32 0, label %87
    i32 1, label %87
  ]

87:                                               ; preds = %85, %85
  ret void

88:                                               ; preds = %85
  unreachable
}