; Function Attrs: nounwind uwtable
define void @Cut_CellLoad() local_unnamed_addr #0 {
  %1 = alloca [1000 x i8], align 16
  call void @llvm.lifetime.start.p0(i64 1000, ptr nonnull %1) #16
  %2 = tail call noalias ptr @fopen(ptr noundef nonnull @.str, ptr noundef nonnull @.str.1)
  %3 = icmp eq ptr %2, null
  br i1 %3, label %4, label %6

4:                                                ; preds = %0
  %5 = tail call i32 (ptr, ...) @printf(ptr noundef nonnull dereferenceable(1) @.str.2, ptr noundef nonnull @.str)
  br label %61

6:                                                ; preds = %0
  %calloc.i = tail call dereferenceable_or_null(5184) ptr @calloc(i64 1, i64 5184)
  %7 = tail call ptr @st__init_table(ptr noundef nonnull @st__ptrcmp, ptr noundef nonnull @st__ptrhash) #16
  %8 = getelementptr inbounds nuw i8, ptr %calloc.i, i64 8
  store ptr %7, ptr %8, align 8, !tbaa !3
  %9 = tail call ptr @Extra_MmFixedStart(i32 noundef 152) #16
  store ptr %9, ptr %calloc.i, align 8, !tbaa !12
  %10 = getelementptr inbounds nuw i8, ptr %calloc.i, i64 96
  br label %.preheader.i

.preheader.i:                                     ; preds = %25, %6
  %indvars.iv.i = phi i64 [ 0, %6 ], [ %indvars.iv.next.i, %25 ]
  %11 = trunc nuw nsw i64 %indvars.iv.i to i32
  %12 = shl nuw nsw i32 1, %11
  br label %13

13:                                               ; preds = %23, %.preheader.i
  %.01415.i = phi i32 [ 0, %.preheader.i ], [ %24, %23 ]
  %14 = and i32 %.01415.i, %12
  %.not.i = icmp eq i32 %14, 0
  br i1 %.not.i, label %23, label %15

15:                                               ; preds = %13
  %16 = and i32 %.01415.i, 31
  %17 = shl nuw i32 1, %16
  %18 = lshr i32 %.01415.i, 5
  %19 = zext nneg i32 %18 to i64
  %20 = getelementptr inbounds nuw [9 x [16 x i32]], ptr %10, i64 0, i64 %indvars.iv.i, i64 %19
  %21 = load i32, ptr %20, align 4, !tbaa !13
  %22 = or i32 %21, %17
  store i32 %22, ptr %20, align 4, !tbaa !13
  br label %23

23:                                               ; preds = %15, %13
  %24 = add nuw nsw i32 %.01415.i, 1
  %exitcond.not.i = icmp eq i32 %24, 512
  br i1 %exitcond.not.i, label %25, label %13, !llvm.loop !14

25:                                               ; preds = %23
  %indvars.iv.next.i = add nuw nsw i64 %indvars.iv.i, 1
  %exitcond18.not.i = icmp eq i64 %indvars.iv.next.i, 9
  br i1 %exitcond18.not.i, label %Cut_CManStart.exit, label %.preheader.i, !llvm.loop !16

Cut_CManStart.exit:                               ; preds = %25
  store ptr %calloc.i, ptr @s_pCMan, align 8, !tbaa !17
  %26 = call ptr @fgets(ptr noundef nonnull %1, i32 noundef 1000, ptr noundef nonnull %2)
  %.not23 = icmp eq ptr %26, null
  br i1 %.not23, label %._crit_edge, label %.lr.ph

.lr.ph:                                           ; preds = %Cut_CManStart.exit
  %27 = getelementptr inbounds nuw i8, ptr %calloc.i, i64 5024
  %28 = getelementptr inbounds nuw i8, ptr %calloc.i, i64 5028
  br label %29

29:                                               ; preds = %.lr.ph, %.backedge
  %30 = call i64 @strlen(ptr noundef nonnull dereferenceable(1) %1) #17
  %31 = trunc i64 %30 to i32
  %32 = add nsw i32 %31, -1
  %sext = shl i64 %30, 32
  %33 = ashr exact i64 %sext, 32
  %34 = getelementptr inbounds [1000 x i8], ptr %1, i64 0, i64 %33
  store i8 0, ptr %34, align 1, !tbaa !19
  %35 = icmp eq i32 %32, 0
  br i1 %35, label %.backedge, label %36

36:                                               ; preds = %29
  %37 = load ptr, ptr %calloc.i, align 8, !tbaa !12
  %38 = call ptr @Extra_MmFixedEntryFetch(ptr noundef %37) #16
  call void @llvm.memset.p0.i64(ptr noundef nonnull align 8 dereferenceable(152) %38, i8 0, i64 152, i1 false)
  %39 = shl nsw i32 %32, 2
  %40 = add i32 %39, -1
  %41 = call range(i32 0, 33) i32 @llvm.ctlz.i32(i32 %40, i1 true)
  %42 = sub nsw i32 0, %41
  %43 = getelementptr inbounds nuw i8, ptr %38, i64 32
  %44 = and i32 %42, 15
  store i32 %44, ptr %43, align 8
  %45 = getelementptr inbounds nuw i8, ptr %38, i64 24
  store i32 1, ptr %45, align 8, !tbaa !20
  %46 = getelementptr inbounds nuw i8, ptr %38, i64 84
  %47 = call i32 @Extra_ReadHexadecimal(ptr noundef nonnull %46, ptr noundef nonnull %1, i32 noundef %44) #16
  call fastcc void @Cut_CellSuppMin(ptr noundef nonnull %38)
  %48 = load i32, ptr %27, align 8, !tbaa !23
  %49 = add nsw i32 %48, 1
  store i32 %49, ptr %27, align 8, !tbaa !23
  %50 = call fastcc i32 @Cut_CellTableLookup(ptr noundef nonnull %calloc.i, ptr noundef nonnull %38)
  %.not22 = icmp eq i32 %50, 0
  br i1 %.not22, label %51, label %.backedge

51:                                               ; preds = %36
  %52 = load i32, ptr %28, align 4, !tbaa !24
  %53 = add nsw i32 %52, 1
  store i32 %53, ptr %28, align 4, !tbaa !24
  br label %.backedge

.backedge:                                        ; preds = %36, %51, %29
  %54 = call ptr @fgets(ptr noundef nonnull %1, i32 noundef 1000, ptr noundef nonnull %2)
  %.not = icmp eq ptr %54, null
  br i1 %.not, label %._crit_edge, label %29, !llvm.loop !25

._crit_edge:                                      ; preds = %.backedge, %Cut_CManStart.exit
  %55 = getelementptr inbounds nuw i8, ptr %calloc.i, i64 5024
  %56 = load i32, ptr %55, align 8, !tbaa !23
  %57 = getelementptr inbounds nuw i8, ptr %calloc.i, i64 5028
  %58 = load i32, ptr %57, align 4, !tbaa !24
  %59 = call i32 (ptr, ...) @printf(ptr noundef nonnull dereferenceable(1) @.str.3, i32 noundef %56, ptr noundef nonnull @.str, i32 noundef %58)
  %60 = call i32 @fclose(ptr noundef nonnull %2)
  br label %61

61:                                               ; preds = %._crit_edge, %4
  call void @llvm.lifetime.end.p0(i64 1000, ptr nonnull %1) #16
  ret void
}